; ModuleID = '27/515.c'
source_filename = "27/515.c"
target datalayout = "e-m:e-p270:32:32-p271:32:32-p272:64:64-i64:64-f80:128-n8:16:32:64-S128"
target triple = "x86_64-pc-linux-gnu"

@.str = private unnamed_addr constant [3 x i8] c"%d\00", align 1
@.str.1 = private unnamed_addr constant [10 x i8] c"%lf%lf%lf\00", align 1
@.str.2 = private unnamed_addr constant [19 x i8] c"x1=%.5lf;x2=%.5lf\0A\00", align 1
@.str.3 = private unnamed_addr constant [13 x i8] c"x1=x2=%.5lf\0A\00", align 1
@.str.4 = private unnamed_addr constant [33 x i8] c"x1=%.5lf+%.5lfi;x2=%.5lf-%.5lfi\0A\00", align 1

; Function Attrs: noinline nounwind uwtable
define dso_local i32 @main() #0 {
  %1 = alloca i32, align 4
  %2 = alloca i32, align 4
  %3 = alloca i32, align 4
  %4 = alloca double, align 8
  %5 = alloca double, align 8
  %6 = alloca double, align 8
  %7 = alloca double, align 8
  %8 = alloca double, align 8
  %9 = alloca double, align 8
  %10 = alloca double, align 8
  %11 = alloca double, align 8
  store i32 0, i32* %1, align 4
  %12 = call i32 (i8*, ...) @__isoc99_scanf(i8* getelementptr inbounds ([3 x i8], [3 x i8]* @.str, i64 0, i64 0), i32* %2)
  store i32 1, i32* %3, align 4
  br label %13

13:                                               ; preds = %79, %0
  %14 = load i32, i32* %3, align 4
  %15 = load i32, i32* %2, align 4
  %16 = icmp sle i32 %14, %15
  br i1 %16, label %17, label %82

17:                                               ; preds = %13
  %18 = call i32 (i8*, ...) @__isoc99_scanf(i8* getelementptr inbounds ([10 x i8], [10 x i8]* @.str.1, i64 0, i64 0), double* %4, double* %5, double* %6)
  %19 = load double, double* %5, align 8
  %20 = load double, double* %5, align 8
  %21 = fmul double %19, %20
  %22 = load double, double* %4, align 8
  %23 = fmul double 4.000000e+00, %22
  %24 = load double, double* %6, align 8
  %25 = fmul double %23, %24
  %26 = fsub double %21, %25
  store double %26, double* %7, align 8
  %27 = load double, double* %7, align 8
  %28 = fcmp ogt double %27, 0.000000e+00
  br i1 %28, label %29, label %49

29:                                               ; preds = %17
  %30 = load double, double* %5, align 8
  %31 = fsub double 0.000000e+00, %30
  %32 = load double, double* %7, align 8
  %33 = call double @sqrt(double %32) #3
  %34 = fadd double %31, %33
  %35 = load double, double* %4, align 8
  %36 = fmul double 2.000000e+00, %35
  %37 = fdiv double %34, %36
  store double %37, double* %10, align 8
  %38 = load double, double* %5, align 8
  %39 = fsub double 0.000000e+00, %38
  %40 = load double, double* %7, align 8
  %41 = call double @sqrt(double %40) #3
  %42 = fsub double %39, %41
  %43 = load double, double* %4, align 8
  %44 = fmul double 2.000000e+00, %43
  %45 = fdiv double %42, %44
  store double %45, double* %11, align 8
  %46 = load double, double* %10, align 8
  %47 = load double, double* %11, align 8
  %48 = call i32 (i8*, ...) @printf(i8* getelementptr inbounds ([19 x i8], [19 x i8]* @.str.2, i64 0, i64 0), double %46, double %47)
  br label %78

49:                                               ; preds = %17
  %50 = load double, double* %7, align 8
  %51 = fcmp oeq double %50, 0.000000e+00
  br i1 %51, label %52, label %60

52:                                               ; preds = %49
  %53 = load double, double* %5, align 8
  %54 = fsub double 0.000000e+00, %53
  %55 = load double, double* %4, align 8
  %56 = fmul double 2.000000e+00, %55
  %57 = fdiv double %54, %56
  store double %57, double* %10, align 8
  %58 = load double, double* %10, align 8
  %59 = call i32 (i8*, ...) @printf(i8* getelementptr inbounds ([13 x i8], [13 x i8]* @.str.3, i64 0, i64 0), double %58)
  br label %77

60:                                               ; preds = %49
  %61 = load double, double* %5, align 8
  %62 = fsub double 0.000000e+00, %61
  %63 = load double, double* %4, align 8
  %64 = fmul double 2.000000e+00, %63
  %65 = fdiv double %62, %64
  store double %65, double* %8, align 8
  %66 = load double, double* %7, align 8
  %67 = fneg double %66
  %68 = call double @sqrt(double %67) #3
  %69 = load double, double* %4, align 8
  %70 = fmul double 2.000000e+00, %69
  %71 = fdiv double %68, %70
  store double %71, double* %9, align 8
  %72 = load double, double* %8, align 8
  %73 = load double, double* %9, align 8
  %74 = load double, double* %8, align 8
  %75 = load double, double* %9, align 8
  %76 = call i32 (i8*, ...) @printf(i8* getelementptr inbounds ([33 x i8], [33 x i8]* @.str.4, i64 0, i64 0), double %72, double %73, double %74, double %75)
  br label %77

77:                                               ; preds = %60, %52
  br label %78

78:                                               ; preds = %77, %29
  br label %79

79:                                               ; preds = %78
  %80 = load i32, i32* %3, align 4
  %81 = add nsw i32 %80, 1
  store i32 %81, i32* %3, align 4
  br label %13

82:                                               ; preds = %13
  %83 = load i32, i32* %1, align 4
  ret i32 %83
}

declare dso_local i32 @__isoc99_scanf(i8*, ...) #1

; Function Attrs: nounwind
declare dso_local double @sqrt(double) #2

declare dso_local i32 @printf(i8*, ...) #1


!llvm.module.flags = !{!0}
!llvm.ident = !{!1}

!0 = !{i32 1, !"wchar_size", i32 4}
!1 = !{!"clang version 10.0.0-4ubuntu1 "}
